; Function Attrs: mustprogress nounwind uwtable
define internal void @_ZN4node9inspector12_GLOBAL__N_111CallRequestINS1_22MainThreadSessionStateESt5_BindIFPFvPS3_MS3_FvSt10unique_ptrINS0_24InspectorSessionDelegateESt14default_deleteIS7_EEERSA_ESt12_PlaceholderILi1EESC_SA_EEED0Ev(ptr noundef nonnull align 8 dereferenceable(48) %this) unnamed_addr #3 align 2 {
entry:
  store ptr getelementptr inbounds ({ [5 x ptr] }, ptr @_ZTVN4node9inspector12_GLOBAL__N_111CallRequestINS1_22MainThreadSessionStateESt5_BindIFPFvPS3_MS3_FvSt10unique_ptrINS0_24InspectorSessionDelegateESt14default_deleteIS7_EEERSA_ESt12_PlaceholderILi1EESC_SA_EEEE, i64 0, i32 0, i64 2), ptr %this, align 8
  %_M_bound_args.i.i = getelementptr inbounds i8, ptr %this, i64 24
  %0 = load ptr, ptr %_M_bound_args.i.i, align 8
  %cmp.not.i.i.i.i.i.i.i.i = icmp eq ptr %0, null
  br i1 %cmp.not.i.i.i.i.i.i.i.i, label %_ZN4node9inspector12_GLOBAL__N_111CallRequestINS1_22MainThreadSessionStateESt5_BindIFPFvPS3_MS3_FvSt10unique_ptrINS0_24InspectorSessionDelegateESt14default_deleteIS7_EEERSA_ESt12_PlaceholderILi1EESC_SA_EEED2Ev.exit, label %_ZNKSt14default_deleteIN4node9inspector24InspectorSessionDelegateEEclEPS2_.exit.i.i.i.i.i.i.i.i

_ZNKSt14default_deleteIN4node9inspector24InspectorSessionDelegateEEclEPS2_.exit.i.i.i.i.i.i.i.i: ; preds = %entry
  %vtable.i.i.i.i.i.i.i.i.i = load ptr, ptr %0, align 8
  %vfn.i.i.i.i.i.i.i.i.i = getelementptr inbounds i8, ptr %vtable.i.i.i.i.i.i.i.i.i, i64 8
  %1 = load ptr, ptr %vfn.i.i.i.i.i.i.i.i.i, align 8
  tail call void %1(ptr noundef nonnull align 8 dereferenceable(8) %0) #20
  br label %_ZN4node9inspector12_GLOBAL__N_111CallRequestINS1_22MainThreadSessionStateESt5_BindIFPFvPS3_MS3_FvSt10unique_ptrINS0_24InspectorSessionDelegateESt14default_deleteIS7_EEERSA_ESt12_PlaceholderILi1EESC_SA_EEED2Ev.exit

_ZN4node9inspector12_GLOBAL__N_111CallRequestINS1_22MainThreadSessionStateESt5_BindIFPFvPS3_MS3_FvSt10unique_ptrINS0_24InspectorSessionDelegateESt14default_deleteIS7_EEERSA_ESt12_PlaceholderILi1EESC_SA_EEED2Ev.exit: ; preds = %entry, %_ZNKSt14default_deleteIN4node9inspector24InspectorSessionDelegateEEclEPS2_.exit.i.i.i.i.i.i.i.i
  tail call void @_ZdlPv(ptr noundef nonnull %this) #22
  ret void
}